target datalayout = "e-m:e-p270:32:32-p271:32:32-p272:64:64-i64:64-f80:128-n8:16:32:64-S128"
target triple = "x86_64-pc-linux-gnu"

@.str = private unnamed_addr constant [6 x i8] c"%d %s\00", align 1
@.str.1 = private unnamed_addr constant [3 x i8] c"NO\00", align 1
@.str.2 = private unnamed_addr constant [4 x i8] c"%d\0A\00", align 1
@.str.3 = private unnamed_addr constant [3 x i8] c"%c\00", align 1
@.str.4 = private unnamed_addr constant [4 x i8] c"%c\0A\00", align 1

; Function Attrs: noinline nounwind uwtable
define dso_local i32 @main() #0 {
  %1 = alloca i32, align 4
  %2 = alloca [501 x i8], align 16
  %3 = alloca i32, align 4
  %4 = alloca i32, align 4
  %5 = alloca i32, align 4
  %6 = alloca i32, align 4
  %7 = alloca i32, align 4
  %8 = alloca [501 x [5 x i8]], align 16
  %9 = alloca [501 x i32], align 16
  %10 = alloca i32, align 4
  store i32 0, i32* %1, align 4
  %11 = getelementptr inbounds [501 x i8], [501 x i8]* %2, i64 0, i64 0
  %12 = call i32 (i8*, ...) @__isoc99_scanf(i8* getelementptr inbounds ([6 x i8], [6 x i8]* @.str, i64 0, i64 0), i32* %3, i8* %11)
  %13 = getelementptr inbounds [501 x i8], [501 x i8]* %2, i64 0, i64 0
  %14 = call i64 @strlen(i8* %13) #4
  %15 = trunc i64 %14 to i32
  store i32 %15, i32* %7, align 4
  store i32 0, i32* %4, align 4
  br label %16

16:                                               ; preds = %43, %0
  %17 = load i32, i32* %4, align 4
  %18 = load i32, i32* %7, align 4
  %19 = load i32, i32* %3, align 4
  %20 = sub nsw i32 %18, %19
  %21 = icmp sle i32 %17, %20
  br i1 %21, label %22, label %46

22:                                               ; preds = %16
  store i32 0, i32* %5, align 4
  br label %23

23:                                               ; preds = %39, %22
  %24 = load i32, i32* %5, align 4
  %25 = icmp slt i32 %24, 5
  br i1 %25, label %26, label %42

26:                                               ; preds = %23
  %27 = load i32, i32* %4, align 4
  %28 = load i32, i32* %5, align 4
  %29 = add nsw i32 %27, %28
  %30 = sext i32 %29 to i64
  %31 = getelementptr inbounds [501 x i8], [501 x i8]* %2, i64 0, i64 %30
  %32 = load i8, i8* %31, align 1
  %33 = load i32, i32* %4, align 4
  %34 = sext i32 %33 to i64
  %35 = getelementptr inbounds [501 x [5 x i8]], [501 x [5 x i8]]* %8, i64 0, i64 %34
  %36 = load i32, i32* %5, align 4
  %37 = sext i32 %36 to i64
  %38 = getelementptr inbounds [5 x i8], [5 x i8]* %35, i64 0, i64 %37
  store i8 %32, i8* %38, align 1
  br label %39

39:                                               ; preds = %26
  %40 = load i32, i32* %5, align 4
  %41 = add nsw i32 %40, 1
  store i32 %41, i32* %5, align 4
  br label %23

42:                                               ; preds = %23
  br label %43

43:                                               ; preds = %42
  %44 = load i32, i32* %4, align 4
  %45 = add nsw i32 %44, 1
  store i32 %45, i32* %4, align 4
  br label %16

46:                                               ; preds = %16
  %47 = bitcast [501 x i32]* %9 to i8*
  call void @llvm.memset.p0i8.i64(i8* align 16 %47, i8 0, i64 2004, i1 false)
  store i32 1, i32* %4, align 4
  br label %48

48:                                               ; preds = %105, %46
  %49 = load i32, i32* %4, align 4
  %50 = load i32, i32* %7, align 4
  %51 = load i32, i32* %3, align 4
  %52 = sub nsw i32 %50, %51
  %53 = icmp sle i32 %49, %52
  br i1 %53, label %54, label %108

54:                                               ; preds = %48
  store i32 0, i32* %6, align 4
  br label %55

55:                                               ; preds = %101, %54
  %56 = load i32, i32* %6, align 4
  %57 = load i32, i32* %4, align 4
  %58 = icmp slt i32 %56, %57
  br i1 %58, label %59, label %104

59:                                               ; preds = %55
  store i32 0, i32* %10, align 4
  store i32 0, i32* %5, align 4
  br label %60

60:                                               ; preds = %97, %59
  %61 = load i32, i32* %5, align 4
  %62 = load i32, i32* %3, align 4
  %63 = icmp slt i32 %61, %62
  br i1 %63, label %64, label %100

64:                                               ; preds = %60
  %65 = load i32, i32* %4, align 4
  %66 = sext i32 %65 to i64
  %67 = getelementptr inbounds [501 x [5 x i8]], [501 x [5 x i8]]* %8, i64 0, i64 %66
  %68 = load i32, i32* %5, align 4
  %69 = sext i32 %68 to i64
  %70 = getelementptr inbounds [5 x i8], [5 x i8]* %67, i64 0, i64 %69
  %71 = load i8, i8* %70, align 1
  %72 = sext i8 %71 to i32
  %73 = load i32, i32* %6, align 4
  %74 = sext i32 %73 to i64
  %75 = getelementptr inbounds [501 x [5 x i8]], [501 x [5 x i8]]* %8, i64 0, i64 %74
  %76 = load i32, i32* %5, align 4
  %77 = sext i32 %76 to i64
  %78 = getelementptr inbounds [5 x i8], [5 x i8]* %75, i64 0, i64 %77
  %79 = load i8, i8* %78, align 1
  %80 = sext i8 %79 to i32
  %81 = icmp eq i32 %72, %80
  br i1 %81, label %82, label %85

82:                                               ; preds = %64
  %83 = load i32, i32* %10, align 4
  %84 = add nsw i32 %83, 1
  store i32 %84, i32* %10, align 4
  br label %86

85:                                               ; preds = %64
  br label %100

86:                                               ; preds = %82
  %87 = load i32, i32* %10, align 4
  %88 = load i32, i32* %3, align 4
  %89 = icmp eq i32 %87, %88
  br i1 %89, label %90, label %96

90:                                               ; preds = %86
  %91 = load i32, i32* %6, align 4
  %92 = sext i32 %91 to i64
  %93 = getelementptr inbounds [501 x i32], [501 x i32]* %9, i64 0, i64 %92
  %94 = load i32, i32* %93, align 4
  %95 = add nsw i32 %94, 1
  store i32 %95, i32* %93, align 4
  br label %96

96:                                               ; preds = %90, %86
  br label %97

97:                                               ; preds = %96
  %98 = load i32, i32* %5, align 4
  %99 = add nsw i32 %98, 1
  store i32 %99, i32* %5, align 4
  br label %60

100:                                              ; preds = %85, %60
  br label %101

101:                                              ; preds = %100
  %102 = load i32, i32* %6, align 4
  %103 = add nsw i32 %102, 1
  store i32 %103, i32* %6, align 4
  br label %55

104:                                              ; preds = %55
  br label %105

105:                                              ; preds = %104
  %106 = load i32, i32* %4, align 4
  %107 = add nsw i32 %106, 1
  store i32 %107, i32* %4, align 4
  br label %48

108:                                              ; preds = %48
  %109 = getelementptr inbounds [501 x i32], [501 x i32]* %9, i64 0, i64 0
  %110 = load i32, i32* %109, align 16
  store i32 %110, i32* %10, align 4
  store i32 1, i32* %4, align 4
  br label %111

111:                                              ; preds = %130, %108
  %112 = load i32, i32* %4, align 4
  %113 = load i32, i32* %7, align 4
  %114 = load i32, i32* %3, align 4
  %115 = sub nsw i32 %113, %114
  %116 = icmp sle i32 %112, %115
  br i1 %116, label %117, label %133

117:                                              ; preds = %111
  %118 = load i32, i32* %4, align 4
  %119 = sext i32 %118 to i64
  %120 = getelementptr inbounds [501 x i32], [501 x i32]* %9, i64 0, i64 %119
  %121 = load i32, i32* %120, align 4
  %122 = load i32, i32* %10, align 4
  %123 = icmp sgt i32 %121, %122
  br i1 %123, label %124, label %129

124:                                              ; preds = %117
  %125 = load i32, i32* %4, align 4
  %126 = sext i32 %125 to i64
  %127 = getelementptr inbounds [501 x i32], [501 x i32]* %9, i64 0, i64 %126
  %128 = load i32, i32* %127, align 4
  store i32 %128, i32* %10, align 4
  br label %129

129:                                              ; preds = %124, %117
  br label %130

130:                                              ; preds = %129
  %131 = load i32, i32* %4, align 4
  %132 = add nsw i32 %131, 1
  store i32 %132, i32* %4, align 4
  br label %111

133:                                              ; preds = %111
  %134 = load i32, i32* %10, align 4
  %135 = icmp eq i32 %134, 0
  br i1 %135, label %136, label %138

136:                                              ; preds = %133
  %137 = call i32 (i8*, ...) @printf(i8* getelementptr inbounds ([3 x i8], [3 x i8]* @.str.1, i64 0, i64 0))
  br label %195

138:                                              ; preds = %133
  %139 = load i32, i32* %10, align 4
  %140 = add nsw i32 %139, 1
  %141 = call i32 (i8*, ...) @printf(i8* getelementptr inbounds ([4 x i8], [4 x i8]* @.str.2, i64 0, i64 0), i32 %140)
  store i32 0, i32* %4, align 4
  br label %142

142:                                              ; preds = %191, %138
  %143 = load i32, i32* %4, align 4
  %144 = load i32, i32* %7, align 4
  %145 = load i32, i32* %3, align 4
  %146 = sub nsw i32 %144, %145
  %147 = icmp sle i32 %143, %146
  br i1 %147, label %148, label %194

148:                                              ; preds = %142
  %149 = load i32, i32* %4, align 4
  %150 = sext i32 %149 to i64
  %151 = getelementptr inbounds [501 x i32], [501 x i32]* %9, i64 0, i64 %150
  %152 = load i32, i32* %151, align 4
  %153 = load i32, i32* %10, align 4
  %154 = icmp eq i32 %152, %153
  br i1 %154, label %155, label %190

155:                                              ; preds = %148
  store i32 0, i32* %5, align 4
  br label %156

156:                                              ; preds = %171, %155
  %157 = load i32, i32* %5, align 4
  %158 = load i32, i32* %3, align 4
  %159 = sub nsw i32 %158, 1
  %160 = icmp slt i32 %157, %159
  br i1 %160, label %161, label %174

161:                                              ; preds = %156
  %162 = load i32, i32* %4, align 4
  %163 = sext i32 %162 to i64
  %164 = getelementptr inbounds [501 x [5 x i8]], [501 x [5 x i8]]* %8, i64 0, i64 %163
  %165 = load i32, i32* %5, align 4
  %166 = sext i32 %165 to i64
  %167 = getelementptr inbounds [5 x i8], [5 x i8]* %164, i64 0, i64 %166
  %168 = load i8, i8* %167, align 1
  %169 = sext i8 %168 to i32
  %170 = call i32 (i8*, ...) @printf(i8* getelementptr inbounds ([3 x i8], [3 x i8]* @.str.3, i64 0, i64 0), i32 %169)
  br label %171

171:                                              ; preds = %161
  %172 = load i32, i32* %5, align 4
  %173 = add nsw i32 %172, 1
  store i32 %173, i32* %5, align 4
  br label %156

174:                                              ; preds = %156
  %175 = load i32, i32* %5, align 4
  %176 = load i32, i32* %3, align 4
  %177 = sub nsw i32 %176, 1
  %178 = icmp eq i32 %175, %177
  br i1 %178, label %179, label %189

179:                                              ; preds = %174
  %180 = load i32, i32* %4, align 4
  %181 = sext i32 %180 to i64
  %182 = getelementptr inbounds [501 x [5 x i8]], [501 x [5 x i8]]* %8, i64 0, i64 %181
  %183 = load i32, i32* %5, align 4
  %184 = sext i32 %183 to i64
  %185 = getelementptr inbounds [5 x i8], [5 x i8]* %182, i64 0, i64 %184
  %186 = load i8, i8* %185, align 1
  %187 = sext i8 %186 to i32
  %188 = call i32 (i8*, ...) @printf(i8* getelementptr inbounds ([4 x i8], [4 x i8]* @.str.4, i64 0, i64 0), i32 %187)
  br label %189

189:                                              ; preds = %179, %174
  br label %190

190:                                              ; preds = %189, %148
  br label %191

191:                                              ; preds = %190
  %192 = load i32, i32* %4, align 4
  %193 = add nsw i32 %192, 1
  store i32 %193, i32* %4, align 4
  br label %142

194:                                              ; preds = %142
  br label %195

195:                                              ; preds = %194, %136
  %196 = load i32, i32* %1, align 4
  ret i32 %196
}